target datalayout = "e-m:e-p270:32:32-p271:32:32-p272:64:64-i64:64-i128:128-f80:128-n8:16:32:64-S128"
target triple = "x86_64-pc-linux-gnu"

%struct.state_t = type { i32, i8, i8 }

@.str.28 = private unnamed_addr constant [3 x i8] c"\\\22\00", align 1
@.str.29 = private unnamed_addr constant [3 x i8] c"\\\\\00", align 1
@.str.30 = private unnamed_addr constant [3 x i8] c"\\/\00", align 1
@.str.31 = private unnamed_addr constant [3 x i8] c"\\b\00", align 1
@.str.32 = private unnamed_addr constant [3 x i8] c"\\f\00", align 1
@.str.33 = private unnamed_addr constant [3 x i8] c"\\n\00", align 1
@.str.34 = private unnamed_addr constant [3 x i8] c"\\r\00", align 1
@.str.35 = private unnamed_addr constant [3 x i8] c"\\t\00", align 1

; Function Attrs: nounwind uwtable
define internal void @stoj(ptr noundef %0, ptr noundef %1, ptr noundef %2) #0 {
  %4 = alloca ptr, align 8
  %5 = alloca ptr, align 8
  %6 = alloca ptr, align 8
  %7 = alloca ptr, align 8
  %8 = alloca ptr, align 8
  %9 = alloca i8, align 1
  store ptr %0, ptr %4, align 8, !tbaa !114
  store ptr %1, ptr %5, align 8, !tbaa !100
  store ptr %2, ptr %6, align 8, !tbaa !3
  call void @llvm.lifetime.start.p0(i64 8, ptr %7) #9
  call void @llvm.lifetime.start.p0(i64 8, ptr %8) #9
  call void @llvm.lifetime.start.p0(i64 1, ptr %9) #9
  %10 = load ptr, ptr %5, align 8, !tbaa !100
  %11 = getelementptr inbounds nuw %struct.state_t, ptr %10, i32 0, i32 1
  %12 = load i8, ptr %11, align 4, !tbaa !88, !range !91, !noundef !92
  %13 = trunc i8 %12 to i1
  br i1 %13, label %14, label %17

14:                                               ; preds = %3
  %15 = load ptr, ptr %4, align 8, !tbaa !114
  %16 = call ptr @latin1ToUTF8(ptr noundef %15)
  store ptr %16, ptr %8, align 8, !tbaa !114
  br label %19

17:                                               ; preds = %3
  %18 = load ptr, ptr %4, align 8, !tbaa !114
  store ptr %18, ptr %8, align 8, !tbaa !114
  br label %19

19:                                               ; preds = %17, %14
  %20 = load ptr, ptr %6, align 8, !tbaa !3
  %21 = call i32 @gvputc(ptr noundef %20, i32 noundef 34)
  %22 = load ptr, ptr %8, align 8, !tbaa !114
  store ptr %22, ptr %7, align 8, !tbaa !114
  br label %23

23:                                               ; preds = %60, %19
  %24 = load ptr, ptr %7, align 8, !tbaa !114
  %25 = load i8, ptr %24, align 1, !tbaa !34
  store i8 %25, ptr %9, align 1, !tbaa !34
  %26 = icmp ne i8 %25, 0
  br i1 %26, label %27, label %63

27:                                               ; preds = %23
  %28 = load i8, ptr %9, align 1, !tbaa !34
  %29 = sext i8 %28 to i32
  switch i32 %29, label %54 [
    i32 34, label %30
    i32 92, label %33
    i32 47, label %36
    i32 8, label %39
    i32 12, label %42
    i32 10, label %45
    i32 13, label %48
    i32 9, label %51
  ]

30:                                               ; preds = %27
  %31 = load ptr, ptr %6, align 8, !tbaa !3
  %32 = call i32 @gvputs(ptr noundef %31, ptr noundef @.str.28)
  br label %59

33:                                               ; preds = %27
  %34 = load ptr, ptr %6, align 8, !tbaa !3
  %35 = call i32 @gvputs(ptr noundef %34, ptr noundef @.str.29)
  br label %59

36:                                               ; preds = %27
  %37 = load ptr, ptr %6, align 8, !tbaa !3
  %38 = call i32 @gvputs(ptr noundef %37, ptr noundef @.str.30)
  br label %59

39:                                               ; preds = %27
  %40 = load ptr, ptr %6, align 8, !tbaa !3
  %41 = call i32 @gvputs(ptr noundef %40, ptr noundef @.str.31)
  br label %59

42:                                               ; preds = %27
  %43 = load ptr, ptr %6, align 8, !tbaa !3
  %44 = call i32 @gvputs(ptr noundef %43, ptr noundef @.str.32)
  br label %59

45:                                               ; preds = %27
  %46 = load ptr, ptr %6, align 8, !tbaa !3
  %47 = call i32 @gvputs(ptr noundef %46, ptr noundef @.str.33)
  br label %59

48:                                               ; preds = %27
  %49 = load ptr, ptr %6, align 8, !tbaa !3
  %50 = call i32 @gvputs(ptr noundef %49, ptr noundef @.str.34)
  br label %59

51:                                               ; preds = %27
  %52 = load ptr, ptr %6, align 8, !tbaa !3
  %53 = call i32 @gvputs(ptr noundef %52, ptr noundef @.str.35)
  br label %59

54:                                               ; preds = %27
  %55 = load ptr, ptr %6, align 8, !tbaa !3
  %56 = load i8, ptr %9, align 1, !tbaa !34
  %57 = sext i8 %56 to i32
  %58 = call i32 @gvputc(ptr noundef %55, i32 noundef %57)
  br label %59

59:                                               ; preds = %54, %51, %48, %45, %42, %39, %36, %33, %30
  br label %60

60:                                               ; preds = %59
  %61 = load ptr, ptr %7, align 8, !tbaa !114
  %62 = getelementptr inbounds nuw i8, ptr %61, i32 1
  store ptr %62, ptr %7, align 8, !tbaa !114
  br label %23, !llvm.loop !141

63:                                               ; preds = %23
  %64 = load ptr, ptr %6, align 8, !tbaa !3
  %65 = call i32 @gvputc(ptr noundef %64, i32 noundef 34)
  %66 = load ptr, ptr %5, align 8, !tbaa !100
  %67 = getelementptr inbounds nuw %struct.state_t, ptr %66, i32 0, i32 1
  %68 = load i8, ptr %67, align 4, !tbaa !88, !range !91, !noundef !92
  %69 = trunc i8 %68 to i1
  br i1 %69, label %70, label %72

70:                                               ; preds = %63
  %71 = load ptr, ptr %8, align 8, !tbaa !114
  call void @free(ptr noundef %71) #9
  br label %72

72:                                               ; preds = %70, %63
  call void @llvm.lifetime.end.p0(i64 1, ptr %9) #9
  call void @llvm.lifetime.end.p0(i64 8, ptr %8) #9
  call void @llvm.lifetime.end.p0(i64 8, ptr %7) #9
  ret void
}