; Function Attrs: nounwind uwtable
define internal fastcc void @stoj(ptr noundef %0, ptr noundef nonnull readonly captures(none) %1, ptr noundef %2) unnamed_addr #0 {
  %4 = getelementptr inbounds nuw i8, ptr %1, i64 4
  %5 = load i8, ptr %4, align 4, !tbaa !85, !range !99, !noundef !100
  %6 = trunc nuw i8 %5 to i1
  br i1 %6, label %7, label %9

7:                                                ; preds = %3
  %8 = tail call ptr @latin1ToUTF8(ptr noundef %0) #15
  br label %9

9:                                                ; preds = %3, %7
  %.020 = phi ptr [ %8, %7 ], [ %0, %3 ]
  %10 = tail call i32 @gvputc(ptr noundef %2, i32 noundef 34) #15
  br label %11

11:                                               ; preds = %32, %9
  %.0 = phi ptr [ %.020, %9 ], [ %33, %32 ]
  %12 = load i8, ptr %.0, align 1, !tbaa !32
  switch i8 %12, label %29 [
    i8 0, label %34
    i8 34, label %13
    i8 92, label %15
    i8 47, label %17
    i8 8, label %19
    i8 12, label %21
    i8 10, label %23
    i8 13, label %25
    i8 9, label %27
  ]

13:                                               ; preds = %11
  %14 = tail call i32 @gvputs(ptr noundef %2, ptr noundef nonnull @.str.28) #15
  br label %32

15:                                               ; preds = %11
  %16 = tail call i32 @gvputs(ptr noundef %2, ptr noundef nonnull @.str.29) #15
  br label %32

17:                                               ; preds = %11
  %18 = tail call i32 @gvputs(ptr noundef %2, ptr noundef nonnull @.str.30) #15
  br label %32

19:                                               ; preds = %11
  %20 = tail call i32 @gvputs(ptr noundef %2, ptr noundef nonnull @.str.31) #15
  br label %32

21:                                               ; preds = %11
  %22 = tail call i32 @gvputs(ptr noundef %2, ptr noundef nonnull @.str.32) #15
  br label %32

23:                                               ; preds = %11
  %24 = tail call i32 @gvputs(ptr noundef %2, ptr noundef nonnull @.str.33) #15
  br label %32

25:                                               ; preds = %11
  %26 = tail call i32 @gvputs(ptr noundef %2, ptr noundef nonnull @.str.34) #15
  br label %32

27:                                               ; preds = %11
  %28 = tail call i32 @gvputs(ptr noundef %2, ptr noundef nonnull @.str.35) #15
  br label %32

29:                                               ; preds = %11
  %30 = sext i8 %12 to i32
  %31 = tail call i32 @gvputc(ptr noundef %2, i32 noundef %30) #15
  br label %32

32:                                               ; preds = %13, %15, %17, %19, %21, %23, %25, %27, %29
  %33 = getelementptr inbounds nuw i8, ptr %.0, i64 1
  br label %11, !llvm.loop !159

34:                                               ; preds = %11
  %35 = tail call i32 @gvputc(ptr noundef %2, i32 noundef 34) #15
  %36 = load i8, ptr %4, align 4, !tbaa !85, !range !99, !noundef !100
  %37 = trunc nuw i8 %36 to i1
  br i1 %37, label %38, label %39

38:                                               ; preds = %34
  tail call void @free(ptr noundef %.020) #15
  br label %39

39:                                               ; preds = %38, %34
  ret void
}